; Function Attrs: mustprogress uwtable
define hidden void @_ZN3fmt3v116detail5printEP8_IO_FILENS0_17basic_string_viewIcEE(ptr noundef captures(none) %0, ptr captures(none) %1, i64 %2) local_unnamed_addr #7 personality ptr @__gxx_personality_v0 {
  %4 = tail call i64 @fwrite(ptr noundef %1, i64 noundef 1, i64 noundef %2, ptr noundef %0)
  %5 = icmp ult i64 %4, %2
  br i1 %5, label %6, label %_ZN3fmt3v116detail10fwrite_allEPKvmP8_IO_FILE.exit

6:                                                ; preds = %3
  %7 = tail call ptr @__cxa_allocate_exception(i64 32) #34
  %8 = tail call ptr @__errno_location() #38
  %9 = load i32, ptr %8, align 4, !tbaa !64
  invoke void @_ZN3fmt3v1112system_errorIJEEESt12system_erroriNS0_7fstringIJDpT_EE1tEDpOS4_(ptr dead_on_unwind writable sret(%"class.std::system_error") align 8 %7, i32 noundef %9, ptr nonnull @.str.45, i64 20)
          to label %10 unwind label %11

10:                                               ; preds = %6
  tail call void @__cxa_throw(ptr %7, ptr nonnull @_ZTISt12system_error, ptr nonnull @_ZNSt12system_errorD1Ev) #36
  unreachable

11:                                               ; preds = %6
  %12 = landingpad { ptr, i32 }
          cleanup
  tail call void @__cxa_free_exception(ptr %7) #34
  resume { ptr, i32 } %12

_ZN3fmt3v116detail10fwrite_allEPKvmP8_IO_FILE.exit: ; preds = %3
  ret void
}